target datalayout = "e-m:e-p270:32:32-p271:32:32-p272:64:64-i64:64-i128:128-f80:128-n8:16:32:64-S128"
target triple = "x86_64-pc-linux-gnu"

%struct.TiffEncoderContext = type { ptr, ptr, i32, i32, i32, i32, i32, i32, i32, ptr, i32, ptr, i32, ptr, i32, i32, [384 x i8], i32, ptr, ptr, i32, [2 x i16], ptr, i32 }

@.str.16 = private unnamed_addr constant [21 x i8] c"Buffer is too small\0A\00", align 1
@.str.17 = private unnamed_addr constant [20 x i8] c"Compressing failed\0A\00", align 1
@.str.18 = private unnamed_addr constant [36 x i8] c"Unsupported compression method: %d\0A\00", align 1

; Function Attrs: inlinehint nounwind uwtable
define internal i32 @check_size(ptr noundef %0, i64 noundef %1) #4 {
  %3 = alloca i32, align 4
  %4 = alloca ptr, align 8
  %5 = alloca i64, align 8
  store ptr %0, ptr %4, align 8, !tbaa !29
  store i64 %1, ptr %5, align 8, !tbaa !84
  %6 = load ptr, ptr %4, align 8, !tbaa !29
  %7 = getelementptr inbounds nuw %struct.TiffEncoderContext, ptr %6, i32 0, i32 20
  %8 = load i32, ptr %7, align 8, !tbaa !69
  %9 = sext i32 %8 to i64
  %10 = load ptr, ptr %4, align 8, !tbaa !29
  %11 = getelementptr inbounds nuw %struct.TiffEncoderContext, ptr %10, i32 0, i32 18
  %12 = load ptr, ptr %11, align 8, !tbaa !67
  %13 = load ptr, ptr %12, align 8, !tbaa !65
  %14 = load ptr, ptr %4, align 8, !tbaa !29
  %15 = getelementptr inbounds nuw %struct.TiffEncoderContext, ptr %14, i32 0, i32 19
  %16 = load ptr, ptr %15, align 8, !tbaa !66
  %17 = ptrtoint ptr %13 to i64
  %18 = ptrtoint ptr %16 to i64
  %19 = sub i64 %17, %18
  %20 = load i64, ptr %5, align 8, !tbaa !84
  %21 = add i64 %19, %20
  %22 = icmp ult i64 %9, %21
  br i1 %22, label %23, label %39

23:                                               ; preds = %2
  %24 = load ptr, ptr %4, align 8, !tbaa !29
  %25 = getelementptr inbounds nuw %struct.TiffEncoderContext, ptr %24, i32 0, i32 19
  %26 = load ptr, ptr %25, align 8, !tbaa !66
  %27 = load ptr, ptr %4, align 8, !tbaa !29
  %28 = getelementptr inbounds nuw %struct.TiffEncoderContext, ptr %27, i32 0, i32 20
  %29 = load i32, ptr %28, align 8, !tbaa !69
  %30 = sext i32 %29 to i64
  %31 = getelementptr inbounds i8, ptr %26, i64 %30
  %32 = getelementptr inbounds i8, ptr %31, i64 1
  %33 = load ptr, ptr %4, align 8, !tbaa !29
  %34 = getelementptr inbounds nuw %struct.TiffEncoderContext, ptr %33, i32 0, i32 18
  %35 = load ptr, ptr %34, align 8, !tbaa !67
  store ptr %32, ptr %35, align 8, !tbaa !65
  %36 = load ptr, ptr %4, align 8, !tbaa !29
  %37 = getelementptr inbounds nuw %struct.TiffEncoderContext, ptr %36, i32 0, i32 1
  %38 = load ptr, ptr %37, align 8, !tbaa !31
  call void (ptr, i32, ptr, ...) @av_log(ptr noundef %38, i32 noundef 16, ptr noundef @.str.16)
  store i32 1, ptr %3, align 4
  br label %40

39:                                               ; preds = %2
  store i32 0, ptr %3, align 4
  br label %40

40:                                               ; preds = %39, %23
  %41 = load i32, ptr %3, align 4
  ret i32 %41
}

; Function Attrs: nounwind uwtable
define internal i32 @encode_strip(ptr noundef %0, ptr noundef %1, ptr noundef %2, i32 noundef %3, i32 noundef %4) #1 {
  %6 = alloca i32, align 4
  %7 = alloca ptr, align 8
  %8 = alloca ptr, align 8
  %9 = alloca ptr, align 8
  %10 = alloca i32, align 4
  %11 = alloca i32, align 4
  %12 = alloca i64, align 8
  %13 = alloca i32, align 4
  store ptr %0, ptr %7, align 8, !tbaa !29
  store ptr %1, ptr %8, align 8, !tbaa !65
  store ptr %2, ptr %9, align 8, !tbaa !65
  store i32 %3, ptr %10, align 4, !tbaa !44
  store i32 %4, ptr %11, align 4, !tbaa !44
  %14 = load i32, ptr %11, align 4, !tbaa !44
  switch i32 %14, label %86 [
    i32 32946, label %15
    i32 8, label %15
    i32 1, label %45
    i32 32773, label %58
    i32 5, label %79
  ]

15:                                               ; preds = %5, %5
  call void @llvm.lifetime.start.p0(i64 8, ptr %12) #9
  %16 = load ptr, ptr %7, align 8, !tbaa !29
  %17 = getelementptr inbounds nuw %struct.TiffEncoderContext, ptr %16, i32 0, i32 20
  %18 = load i32, ptr %17, align 8, !tbaa !69
  %19 = sext i32 %18 to i64
  %20 = load ptr, ptr %7, align 8, !tbaa !29
  %21 = getelementptr inbounds nuw %struct.TiffEncoderContext, ptr %20, i32 0, i32 18
  %22 = load ptr, ptr %21, align 8, !tbaa !67
  %23 = load ptr, ptr %22, align 8, !tbaa !65
  %24 = load ptr, ptr %7, align 8, !tbaa !29
  %25 = getelementptr inbounds nuw %struct.TiffEncoderContext, ptr %24, i32 0, i32 19
  %26 = load ptr, ptr %25, align 8, !tbaa !66
  %27 = ptrtoint ptr %23 to i64
  %28 = ptrtoint ptr %26 to i64
  %29 = sub i64 %27, %28
  %30 = sub nsw i64 %19, %29
  store i64 %30, ptr %12, align 8, !tbaa !84
  %31 = load ptr, ptr %9, align 8, !tbaa !65
  %32 = load ptr, ptr %8, align 8, !tbaa !65
  %33 = load i32, ptr %10, align 4, !tbaa !44
  %34 = sext i32 %33 to i64
  %35 = call i32 @compress(ptr noundef %31, ptr noundef %12, ptr noundef %32, i64 noundef %34)
  %36 = icmp ne i32 %35, 0
  br i1 %36, label %37, label %41

37:                                               ; preds = %15
  %38 = load ptr, ptr %7, align 8, !tbaa !29
  %39 = getelementptr inbounds nuw %struct.TiffEncoderContext, ptr %38, i32 0, i32 1
  %40 = load ptr, ptr %39, align 8, !tbaa !31
  call void (ptr, i32, ptr, ...) @av_log(ptr noundef %40, i32 noundef 16, ptr noundef @.str.17)
  store i32 -542398533, ptr %6, align 4
  store i32 1, ptr %13, align 4
  br label %44

41:                                               ; preds = %15
  %42 = load i64, ptr %12, align 8, !tbaa !84
  %43 = trunc i64 %42 to i32
  store i32 %43, ptr %6, align 4
  store i32 1, ptr %13, align 4
  br label %44

44:                                               ; preds = %41, %37
  call void @llvm.lifetime.end.p0(i64 8, ptr %12) #9
  br label %91

45:                                               ; preds = %5
  %46 = load ptr, ptr %7, align 8, !tbaa !29
  %47 = load i32, ptr %10, align 4, !tbaa !44
  %48 = sext i32 %47 to i64
  %49 = call i32 @check_size(ptr noundef %46, i64 noundef %48)
  %50 = icmp ne i32 %49, 0
  br i1 %50, label %51, label %52

51:                                               ; preds = %45
  store i32 -22, ptr %6, align 4
  br label %91

52:                                               ; preds = %45
  %53 = load ptr, ptr %9, align 8, !tbaa !65
  %54 = load ptr, ptr %8, align 8, !tbaa !65
  %55 = load i32, ptr %10, align 4, !tbaa !44
  %56 = sext i32 %55 to i64
  call void @llvm.memcpy.p0.p0.i64(ptr align 1 %53, ptr align 1 %54, i64 %56, i1 false)
  %57 = load i32, ptr %10, align 4, !tbaa !44
  store i32 %57, ptr %6, align 4
  br label %91

58:                                               ; preds = %5
  %59 = load ptr, ptr %9, align 8, !tbaa !65
  %60 = load ptr, ptr %7, align 8, !tbaa !29
  %61 = getelementptr inbounds nuw %struct.TiffEncoderContext, ptr %60, i32 0, i32 20
  %62 = load i32, ptr %61, align 8, !tbaa !69
  %63 = sext i32 %62 to i64
  %64 = load ptr, ptr %7, align 8, !tbaa !29
  %65 = getelementptr inbounds nuw %struct.TiffEncoderContext, ptr %64, i32 0, i32 18
  %66 = load ptr, ptr %65, align 8, !tbaa !67
  %67 = load ptr, ptr %66, align 8, !tbaa !65
  %68 = load ptr, ptr %7, align 8, !tbaa !29
  %69 = getelementptr inbounds nuw %struct.TiffEncoderContext, ptr %68, i32 0, i32 19
  %70 = load ptr, ptr %69, align 8, !tbaa !66
  %71 = ptrtoint ptr %67 to i64
  %72 = ptrtoint ptr %70 to i64
  %73 = sub i64 %71, %72
  %74 = sub nsw i64 %63, %73
  %75 = trunc i64 %74 to i32
  %76 = load ptr, ptr %8, align 8, !tbaa !65
  %77 = load i32, ptr %10, align 4, !tbaa !44
  %78 = call i32 @ff_rle_encode(ptr noundef %59, i32 noundef %75, ptr noundef %76, i32 noundef 1, i32 noundef %77, i32 noundef 2, i32 noundef 255, i32 noundef -1, i32 noundef 0)
  store i32 %78, ptr %6, align 4
  br label %91

79:                                               ; preds = %5
  %80 = load ptr, ptr %7, align 8, !tbaa !29
  %81 = getelementptr inbounds nuw %struct.TiffEncoderContext, ptr %80, i32 0, i32 22
  %82 = load ptr, ptr %81, align 8, !tbaa !74
  %83 = load ptr, ptr %8, align 8, !tbaa !65
  %84 = load i32, ptr %10, align 4, !tbaa !44
  %85 = call i32 @ff_lzw_encode(ptr noundef %82, ptr noundef %83, i32 noundef %84)
  store i32 %85, ptr %6, align 4
  br label %91

86:                                               ; preds = %5
  %87 = load ptr, ptr %7, align 8, !tbaa !29
  %88 = getelementptr inbounds nuw %struct.TiffEncoderContext, ptr %87, i32 0, i32 1
  %89 = load ptr, ptr %88, align 8, !tbaa !31
  %90 = load i32, ptr %11, align 4, !tbaa !44
  call void (ptr, i32, ptr, ...) @av_log(ptr noundef %89, i32 noundef 16, ptr noundef @.str.18, i32 noundef %90)
  store i32 -22, ptr %6, align 4
  br label %91

91:                                               ; preds = %86, %79, %58, %52, %51, %44
  %92 = load i32, ptr %6, align 4
  ret i32 %92
}