; Function Attrs: nounwind uwtable
define internal fastcc i32 @encode_strip(ptr noundef readonly captures(none) %0, ptr noundef %1, ptr noundef %2, i32 noundef %3, i32 noundef %4) unnamed_addr #1 {
  %6 = alloca i64, align 8
  switch i32 %4, label %65 [
    i32 32946, label %7
    i32 8, label %7
    i32 1, label %28
    i32 32773, label %48
    i32 5, label %61
  ]

7:                                                ; preds = %5, %5
  call void @llvm.lifetime.start.p0(i64 8, ptr nonnull %6) #10
  %8 = getelementptr inbounds nuw i8, ptr %0, i64 504
  %9 = load i32, ptr %8, align 8, !tbaa !59
  %10 = sext i32 %9 to i64
  %11 = getelementptr inbounds nuw i8, ptr %0, i64 488
  %12 = load ptr, ptr %11, align 8, !tbaa !57
  %13 = load ptr, ptr %12, align 8, !tbaa !55
  %14 = getelementptr inbounds nuw i8, ptr %0, i64 496
  %15 = load ptr, ptr %14, align 8, !tbaa !56
  %16 = ptrtoint ptr %13 to i64
  %17 = ptrtoint ptr %15 to i64
  %.neg25 = sub i64 %10, %16
  %18 = add i64 %.neg25, %17
  store i64 %18, ptr %6, align 8, !tbaa !79
  %19 = sext i32 %3 to i64
  %20 = call i32 @compress(ptr noundef %2, ptr noundef nonnull %6, ptr noundef %1, i64 noundef %19) #10
  %.not26 = icmp eq i32 %20, 0
  br i1 %.not26, label %24, label %21

21:                                               ; preds = %7
  %22 = getelementptr inbounds nuw i8, ptr %0, i64 8
  %23 = load ptr, ptr %22, align 8, !tbaa !27
  call void (ptr, i32, ptr, ...) @av_log(ptr noundef %23, i32 noundef 16, ptr noundef nonnull @.str.17) #10
  br label %27

24:                                               ; preds = %7
  %25 = load i64, ptr %6, align 8, !tbaa !79
  %26 = trunc i64 %25 to i32
  br label %27

27:                                               ; preds = %24, %21
  %.0 = phi i32 [ -542398533, %21 ], [ %26, %24 ]
  call void @llvm.lifetime.end.p0(i64 8, ptr nonnull %6) #10
  br label %68

28:                                               ; preds = %5
  %29 = sext i32 %3 to i64
  %30 = getelementptr inbounds nuw i8, ptr %0, i64 504
  %31 = load i32, ptr %30, align 8, !tbaa !59
  %32 = sext i32 %31 to i64
  %33 = getelementptr inbounds nuw i8, ptr %0, i64 488
  %34 = load ptr, ptr %33, align 8, !tbaa !57
  %35 = load ptr, ptr %34, align 8, !tbaa !55
  %36 = getelementptr inbounds nuw i8, ptr %0, i64 496
  %37 = load ptr, ptr %36, align 8, !tbaa !56
  %38 = ptrtoint ptr %35 to i64
  %39 = ptrtoint ptr %37 to i64
  %40 = add i64 %38, %29
  %41 = sub i64 %40, %39
  %42 = icmp ugt i64 %41, %32
  br i1 %42, label %check_size.exit, label %47

check_size.exit:                                  ; preds = %28
  %43 = getelementptr inbounds i8, ptr %37, i64 %32
  %44 = getelementptr inbounds nuw i8, ptr %43, i64 1
  store ptr %44, ptr %34, align 8, !tbaa !55
  %45 = getelementptr inbounds nuw i8, ptr %0, i64 8
  %46 = load ptr, ptr %45, align 8, !tbaa !27
  tail call void (ptr, i32, ptr, ...) @av_log(ptr noundef %46, i32 noundef 16, ptr noundef nonnull @.str.16) #10
  br label %68

47:                                               ; preds = %28
  tail call void @llvm.memcpy.p0.p0.i64(ptr align 1 %2, ptr align 1 %1, i64 %29, i1 false)
  br label %68

48:                                               ; preds = %5
  %49 = getelementptr inbounds nuw i8, ptr %0, i64 504
  %50 = load i32, ptr %49, align 8, !tbaa !59
  %51 = getelementptr inbounds nuw i8, ptr %0, i64 488
  %52 = load ptr, ptr %51, align 8, !tbaa !57
  %53 = load ptr, ptr %52, align 8, !tbaa !55
  %54 = getelementptr inbounds nuw i8, ptr %0, i64 496
  %55 = load ptr, ptr %54, align 8, !tbaa !56
  %56 = ptrtoint ptr %53 to i64
  %57 = ptrtoint ptr %55 to i64
  %.neg = sub i64 %57, %56
  %58 = trunc i64 %.neg to i32
  %59 = add i32 %50, %58
  %60 = tail call i32 @ff_rle_encode(ptr noundef %2, i32 noundef %59, ptr noundef %1, i32 noundef 1, i32 noundef %3, i32 noundef 2, i32 noundef 255, i32 noundef -1, i32 noundef 0) #10
  br label %68

61:                                               ; preds = %5
  %62 = getelementptr inbounds nuw i8, ptr %0, i64 512
  %63 = load ptr, ptr %62, align 8, !tbaa !65
  %64 = tail call i32 @ff_lzw_encode(ptr noundef %63, ptr noundef %1, i32 noundef %3) #10
  br label %68

65:                                               ; preds = %5
  %66 = getelementptr inbounds nuw i8, ptr %0, i64 8
  %67 = load ptr, ptr %66, align 8, !tbaa !27
  tail call void (ptr, i32, ptr, ...) @av_log(ptr noundef %67, i32 noundef 16, ptr noundef nonnull @.str.18, i32 noundef %4) #10
  br label %68

68:                                               ; preds = %check_size.exit, %65, %61, %48, %47, %27
  %.1 = phi i32 [ -22, %65 ], [ %64, %61 ], [ %60, %48 ], [ %3, %47 ], [ %.0, %27 ], [ -22, %check_size.exit ]
  ret i32 %.1
}